; Function Attrs: mustprogress nounwind uwtable
define internal fastcc void @"_ZZN9grpc_core17ChannelIdleFilter14StartIdleTimerEvEN3$_1D2Ev"(ptr %this.0.val) unnamed_addr #4 align 2 personality ptr @__gxx_personality_v0 {
entry:
  %cmp.not.i = icmp eq ptr %this.0.val, null
  br i1 %cmp.not.i, label %_ZN9grpc_core13RefCountedPtrI18grpc_channel_stackED2Ev.exit, label %if.then.i

if.then.i:                                        ; preds = %entry
  %0 = atomicrmw sub ptr %this.0.val, i64 1 acq_rel, align 8
  %cmp.i.i.i.i = icmp eq i64 %0, 1
  br i1 %cmp.i.i.i.i, label %if.then.i.i.i, label %_ZN9grpc_core13RefCountedPtrI18grpc_channel_stackED2Ev.exit

if.then.i.i.i:                                    ; preds = %if.then.i
  invoke void @_Z19grpc_stream_destroyP20grpc_stream_refcount(ptr noundef nonnull %this.0.val)
          to label %_ZN9grpc_core13RefCountedPtrI18grpc_channel_stackED2Ev.exit unwind label %terminate.lpad.i

terminate.lpad.i:                                 ; preds = %if.then.i.i.i
  %1 = landingpad { ptr, i32 }
          catch ptr null
  %2 = extractvalue { ptr, i32 } %1, 0
  tail call void @__clang_call_terminate(ptr %2) #25
  unreachable

_ZN9grpc_core13RefCountedPtrI18grpc_channel_stackED2Ev.exit: ; preds = %entry, %if.then.i, %if.then.i.i.i
  ret void
}